target datalayout = "e-m:e-p270:32:32-p271:32:32-p272:64:64-i64:64-i128:128-f80:128-n8:16:32:64-S128"
target triple = "x86_64-pc-linux-gnu"

%struct.pcre2_memctl = type { ptr, ptr, ptr }

; Function Attrs: nounwind uwtable
define internal void @pcre2_jit_free(ptr noundef %0, ptr noundef %1) #0 {
  %3 = alloca ptr, align 8
  %4 = alloca ptr, align 8
  %5 = alloca ptr, align 8
  store ptr %0, ptr %3, align 8
  store ptr %1, ptr %4, align 8
  %6 = load ptr, ptr %4, align 8
  store ptr %6, ptr %5, align 8
  %7 = load ptr, ptr %5, align 8
  %8 = getelementptr inbounds %struct.pcre2_memctl, ptr %7, i32 0, i32 1
  %9 = load ptr, ptr %8, align 8
  %10 = load ptr, ptr %3, align 8
  %11 = load ptr, ptr %5, align 8
  %12 = getelementptr inbounds %struct.pcre2_memctl, ptr %11, i32 0, i32 2
  %13 = load ptr, ptr %12, align 8
  call void %9(ptr noundef %10, ptr noundef %13)
  ret void
}

; Function Attrs: nounwind uwtable
define hidden void @_pcre2_jit_free_rodata_8(ptr noundef %0, ptr noundef %1) #0 {
  %3 = alloca ptr, align 8
  %4 = alloca ptr, align 8
  %5 = alloca ptr, align 8
  store ptr %0, ptr %3, align 8
  store ptr %1, ptr %4, align 8
  br label %6

6:                                                ; preds = %9, %2
  %7 = load ptr, ptr %3, align 8
  %8 = icmp ne ptr %7, null
  br i1 %8, label %9, label %15

9:                                                ; preds = %6
  %10 = load ptr, ptr %3, align 8
  %11 = load ptr, ptr %10, align 8
  store ptr %11, ptr %5, align 8
  %12 = load ptr, ptr %3, align 8
  %13 = load ptr, ptr %4, align 8
  call void @pcre2_jit_free(ptr noundef %12, ptr noundef %13)
  %14 = load ptr, ptr %5, align 8
  store ptr %14, ptr %3, align 8
  br label %6

15:                                               ; preds = %6
  ret void
}