; Function Attrs: nounwind uwtable
define hidden void @_pcre2_jit_free_rodata_8(ptr noundef %0, ptr nocapture noundef readonly %1) local_unnamed_addr #0 {
  %.not6 = icmp eq ptr %0, null
  br i1 %.not6, label %._crit_edge, label %.lr.ph

.lr.ph:                                           ; preds = %2
  %3 = getelementptr i8, ptr %1, i64 8
  %4 = getelementptr i8, ptr %1, i64 16
  br label %5

5:                                                ; preds = %.lr.ph, %5
  %.07 = phi ptr [ %0, %.lr.ph ], [ %6, %5 ]
  %6 = load ptr, ptr %.07, align 8
  %.val = load ptr, ptr %3, align 8
  %.val5 = load ptr, ptr %4, align 8
  tail call void %.val(ptr noundef nonnull %.07, ptr noundef %.val5) #18
  %.not = icmp eq ptr %6, null
  br i1 %.not, label %._crit_edge, label %5

._crit_edge:                                      ; preds = %5, %2
  ret void
}